; Function Attrs: mustprogress uwtable
define void @_ZN5faiss11IndexFlat1DC2Eb(ptr noundef nonnull align 8 dereferenceable(128) %0, i1 noundef zeroext %1) unnamed_addr #2 align 2 {
  %3 = zext i1 %1 to i8
  tail call void @_ZN5faiss14IndexFlatCodesC2EmlNS_10MetricTypeE(ptr noundef nonnull align 8 dereferenceable(96) %0, i64 noundef 4, i64 noundef 1, i32 noundef 1)
  %4 = getelementptr inbounds nuw i8, ptr %0, i64 72
  tail call void @llvm.memset.p0.i64(ptr noundef nonnull align 8 dereferenceable(24) %4, i8 0, i64 24, i1 false)
  store ptr getelementptr inbounds nuw inrange(-16, 192) (i8, ptr @_ZTVN5faiss11IndexFlat1DE, i64 16), ptr %0, align 8, !tbaa !4
  %5 = getelementptr inbounds nuw i8, ptr %0, i64 96
  store i8 %3, ptr %5, align 8, !tbaa !80
  %6 = getelementptr inbounds nuw i8, ptr %0, i64 104
  tail call void @llvm.memset.p0.i64(ptr noundef nonnull align 8 dereferenceable(24) %6, i8 0, i64 24, i1 false)
  ret void
}